target datalayout = "e-m:e-p270:32:32-p271:32:32-p272:64:64-i64:64-i128:128-f80:128-n8:16:32:64-S128"
target triple = "x86_64-pc-linux-gnu"

%struct.H5P_enc_iter_ud_t = type { i8, ptr, ptr }
%struct.H5P_genplist_t = type { ptr, i64, i64, i8, ptr, ptr }
%struct.H5P_genclass_t = type { ptr, ptr, i32, i64, i32, i32, i32, i8, i32, ptr, ptr, ptr, ptr, ptr, ptr, ptr }

@.str = private unnamed_addr constant [103 x i8] c"generated/home/dtcxzyw/WorkSpace/Projects/compilers/llvm-opt-benchmark/bench/hdf5/hdf5/src/H5Pencdec.c\00", align 1
@__func__.H5P__encode = private unnamed_addr constant [12 x i8] c"H5P__encode\00", align 1
@H5E_PLIST_g = external global i64, align 8
@H5E_BADVALUE_g = external global i64, align 8
@.str.1 = private unnamed_addr constant [28 x i8] c"bad allocation size pointer\00", align 1
@H5E_BADITER_g = external global i64, align 8
@.str.2 = private unnamed_addr constant [30 x i8] c"can't iterate over properties\00", align 1

; Function Attrs: nounwind uwtable
define i32 @H5P__encode(ptr noundef %0, i1 noundef zeroext %1, ptr noundef %2, ptr noundef %3) #0 {
  %5 = alloca ptr, align 8
  %6 = alloca i8, align 1
  %7 = alloca ptr, align 8
  %8 = alloca ptr, align 8
  %9 = alloca %struct.H5P_enc_iter_ud_t, align 8
  %10 = alloca ptr, align 8
  %11 = alloca i32, align 4
  %12 = alloca i64, align 8
  %13 = alloca i8, align 1
  %14 = alloca i32, align 4
  %15 = alloca i8, align 1
  store ptr %0, ptr %5, align 8
  %16 = zext i1 %1 to i8
  store i8 %16, ptr %6, align 1
  store ptr %2, ptr %7, align 8
  store ptr %3, ptr %8, align 8
  %17 = load ptr, ptr %7, align 8
  store ptr %17, ptr %10, align 8
  store i64 0, ptr %12, align 8
  store i8 1, ptr %13, align 1
  store i32 0, ptr %14, align 4
  store i8 0, ptr %15, align 1
  %18 = load ptr, ptr %8, align 8
  %19 = icmp eq ptr null, %18
  br i1 %19, label %20, label %35

20:                                               ; preds = %4
  br label %21

21:                                               ; preds = %20
  br label %22

22:                                               ; preds = %21
  br label %23

23:                                               ; preds = %22
  %24 = load i64, ptr @H5E_PLIST_g, align 8
  %25 = load i64, ptr @H5E_BADVALUE_g, align 8
  %26 = call i32 (ptr, ptr, i32, i64, i64, ptr, ...) @H5E_printf_stack(ptr noundef @.str, ptr noundef @__func__.H5P__encode, i32 noundef 403, i64 noundef %24, i64 noundef %25, ptr noundef @.str.1)
  br label %27

27:                                               ; preds = %23
  store i8 1, ptr %15, align 1
  %28 = load i8, ptr %15, align 1
  %29 = trunc i8 %28 to i1
  %30 = zext i1 %29 to i8
  store i8 %30, ptr %15, align 1
  br label %31

31:                                               ; preds = %27
  br label %32

32:                                               ; preds = %31
  store i32 -1, ptr %14, align 4
  br label %93

33:                                               ; No predecessors!
  br label %34

34:                                               ; preds = %33
  br label %35

35:                                               ; preds = %34, %4
  %36 = load ptr, ptr %10, align 8
  %37 = icmp eq ptr null, %36
  br i1 %37, label %38, label %39

38:                                               ; preds = %35
  store i8 0, ptr %13, align 1
  br label %39

39:                                               ; preds = %38, %35
  %40 = load i8, ptr %13, align 1
  %41 = trunc i8 %40 to i1
  br i1 %41, label %42, label %53

42:                                               ; preds = %39
  %43 = load ptr, ptr %10, align 8
  %44 = getelementptr inbounds i8, ptr %43, i32 1
  store ptr %44, ptr %10, align 8
  store i8 0, ptr %43, align 1
  %45 = load ptr, ptr %5, align 8
  %46 = getelementptr inbounds %struct.H5P_genplist_t, ptr %45, i32 0, i32 0
  %47 = load ptr, ptr %46, align 8
  %48 = getelementptr inbounds %struct.H5P_genclass_t, ptr %47, i32 0, i32 2
  %49 = load i32, ptr %48, align 8
  %50 = trunc i32 %49 to i8
  %51 = load ptr, ptr %10, align 8
  %52 = getelementptr inbounds i8, ptr %51, i32 1
  store ptr %52, ptr %10, align 8
  store i8 %50, ptr %51, align 1
  br label %53

53:                                               ; preds = %42, %39
  %54 = load i64, ptr %12, align 8
  %55 = add i64 %54, 2
  store i64 %55, ptr %12, align 8
  %56 = load i8, ptr %13, align 1
  %57 = trunc i8 %56 to i1
  %58 = getelementptr inbounds %struct.H5P_enc_iter_ud_t, ptr %9, i32 0, i32 0
  %59 = zext i1 %57 to i8
  store i8 %59, ptr %58, align 8
  %60 = getelementptr inbounds %struct.H5P_enc_iter_ud_t, ptr %9, i32 0, i32 1
  store ptr %12, ptr %60, align 8
  %61 = getelementptr inbounds %struct.H5P_enc_iter_ud_t, ptr %9, i32 0, i32 2
  store ptr %10, ptr %61, align 8
  store i32 0, ptr %11, align 4
  %62 = load ptr, ptr %5, align 8
  %63 = load i8, ptr %6, align 1
  %64 = trunc i8 %63 to i1
  %65 = call i32 @H5P__iterate_plist(ptr noundef %62, i1 noundef zeroext %64, ptr noundef %11, ptr noundef @H5P__encode_cb, ptr noundef %9)
  %66 = icmp slt i32 %65, 0
  br i1 %66, label %67, label %82

67:                                               ; preds = %53
  br label %68

68:                                               ; preds = %67
  br label %69

69:                                               ; preds = %68
  br label %70

70:                                               ; preds = %69
  %71 = load i64, ptr @H5E_PLIST_g, align 8
  %72 = load i64, ptr @H5E_BADITER_g, align 8
  %73 = call i32 (ptr, ptr, i32, i64, i64, ptr, ...) @H5E_printf_stack(ptr noundef @.str, ptr noundef @__func__.H5P__encode, i32 noundef 429, i64 noundef %71, i64 noundef %72, ptr noundef @.str.2)
  br label %74

74:                                               ; preds = %70
  store i8 1, ptr %15, align 1
  %75 = load i8, ptr %15, align 1
  %76 = trunc i8 %75 to i1
  %77 = zext i1 %76 to i8
  store i8 %77, ptr %15, align 1
  br label %78

78:                                               ; preds = %74
  br label %79

79:                                               ; preds = %78
  store i32 -1, ptr %14, align 4
  br label %93

80:                                               ; No predecessors!
  br label %81

81:                                               ; preds = %80
  br label %82

82:                                               ; preds = %81, %53
  %83 = load i8, ptr %13, align 1
  %84 = trunc i8 %83 to i1
  br i1 %84, label %85, label %88

85:                                               ; preds = %82
  %86 = load ptr, ptr %10, align 8
  %87 = getelementptr inbounds i8, ptr %86, i32 1
  store ptr %87, ptr %10, align 8
  store i8 0, ptr %86, align 1
  br label %88

88:                                               ; preds = %85, %82
  %89 = load i64, ptr %12, align 8
  %90 = add i64 %89, 1
  store i64 %90, ptr %12, align 8
  %91 = load i64, ptr %12, align 8
  %92 = load ptr, ptr %8, align 8
  store i64 %91, ptr %92, align 8
  br label %93

93:                                               ; preds = %88, %79, %32
  %94 = load i32, ptr %14, align 4
  ret i32 %94
}