; Function Attrs: nounwind uwtable
define range(i32 -1, 1) i32 @H5P__encode(ptr noundef %0, i1 noundef zeroext %1, ptr noundef %2, ptr noundef writeonly %3) local_unnamed_addr #2 {
  %5 = alloca %struct.H5P_enc_iter_ud_t, align 8
  %6 = alloca ptr, align 8
  %7 = alloca i32, align 4
  %8 = alloca i64, align 8
  store ptr %2, ptr %6, align 8
  %9 = icmp eq ptr %3, null
  br i1 %9, label %10, label %14

10:                                               ; preds = %4
  %11 = load i64, ptr @H5E_PLIST_g, align 8
  %12 = load i64, ptr @H5E_BADVALUE_g, align 8
  %13 = tail call i32 (ptr, ptr, i32, i64, i64, ptr, ...) @H5E_printf_stack(ptr noundef nonnull @.str, ptr noundef nonnull @__func__.H5P__encode, i32 noundef 403, i64 noundef %11, i64 noundef %12, ptr noundef nonnull @.str.1) #8
  br label %39

14:                                               ; preds = %4
  %15 = icmp ne ptr %2, null
  br i1 %15, label %16, label %23

16:                                               ; preds = %14
  %17 = getelementptr inbounds nuw i8, ptr %2, i64 1
  store i8 0, ptr %2, align 1
  %18 = load ptr, ptr %0, align 8
  %19 = getelementptr inbounds nuw i8, ptr %18, i64 16
  %20 = load i32, ptr %19, align 8
  %21 = trunc i32 %20 to i8
  %22 = getelementptr inbounds nuw i8, ptr %2, i64 2
  store ptr %22, ptr %6, align 8
  store i8 %21, ptr %17, align 1
  br label %23

23:                                               ; preds = %16, %14
  store i64 2, ptr %8, align 8
  %24 = zext i1 %15 to i8
  store i8 %24, ptr %5, align 8
  %25 = getelementptr inbounds nuw i8, ptr %5, i64 8
  store ptr %8, ptr %25, align 8
  %26 = getelementptr inbounds nuw i8, ptr %5, i64 16
  store ptr %6, ptr %26, align 8
  store i32 0, ptr %7, align 4
  %27 = call i32 @H5P__iterate_plist(ptr noundef %0, i1 noundef zeroext %1, ptr noundef nonnull %7, ptr noundef nonnull @H5P__encode_cb, ptr noundef nonnull %5) #8
  %28 = icmp slt i32 %27, 0
  br i1 %28, label %29, label %33

29:                                               ; preds = %23
  %30 = load i64, ptr @H5E_PLIST_g, align 8
  %31 = load i64, ptr @H5E_BADITER_g, align 8
  %32 = call i32 (ptr, ptr, i32, i64, i64, ptr, ...) @H5E_printf_stack(ptr noundef nonnull @.str, ptr noundef nonnull @__func__.H5P__encode, i32 noundef 429, i64 noundef %30, i64 noundef %31, ptr noundef nonnull @.str.2) #8
  br label %39

33:                                               ; preds = %23
  br i1 %15, label %34, label %36

34:                                               ; preds = %33
  %35 = load ptr, ptr %6, align 8
  store i8 0, ptr %35, align 1
  br label %36

36:                                               ; preds = %34, %33
  %37 = load i64, ptr %8, align 8
  %38 = add i64 %37, 1
  store i64 %38, ptr %3, align 8
  br label %39

39:                                               ; preds = %36, %29, %10
  %.0 = phi i32 [ -1, %10 ], [ -1, %29 ], [ 0, %36 ]
  ret i32 %.0
}